target datalayout = "e-m:e-p270:32:32-p271:32:32-p272:64:64-i64:64-i128:128-f80:128-n8:16:32:64-S128"
target triple = "x86_64-pc-linux-gnu"

%"class.pstd::optional" = type { %"union.std::aligned_storage<256, 8>::type", i8, [7 x i8] }
%"union.std::aligned_storage<256, 8>::type" = type { [256 x i8] }
%class.anon.6 = type { ptr, ptr }

; Function Attrs: inlinehint mustprogress uwtable
define internal void @"_ZZNK4pbrt9Primitive9IntersectERKNS_3RayEfENK3$_0clIPKNS_15KdTreeAggregateEEEDaT_"(ptr dead_on_unwind noalias writable sret(%"class.pstd::optional") align 8 %0, ptr noundef nonnull align 8 dereferenceable(16) %1, ptr noundef %2) #5 align 2 {
  %4 = alloca ptr, align 8
  %5 = alloca ptr, align 8
  %6 = alloca ptr, align 8
  store ptr %0, ptr %4, align 8
  store ptr %1, ptr %5, align 8, !tbaa !13
  store ptr %2, ptr %6, align 8, !tbaa !135
  %7 = load ptr, ptr %5, align 8
  %8 = load ptr, ptr %6, align 8, !tbaa !135
  %9 = getelementptr inbounds nuw %class.anon.6, ptr %7, i32 0, i32 0
  %10 = load ptr, ptr %9, align 8, !tbaa !137
  %11 = getelementptr inbounds nuw %class.anon.6, ptr %7, i32 0, i32 1
  %12 = load ptr, ptr %11, align 8, !tbaa !139
  %13 = load float, ptr %12, align 4, !tbaa !9
  call void @_ZNK4pbrt15KdTreeAggregate9IntersectERKNS_3RayEf(ptr dead_on_unwind writable sret(%"class.pstd::optional") align 8 %0, ptr noundef nonnull align 8 dereferenceable(104) %8, ptr noundef nonnull align 8 dereferenceable(40) %10, float noundef %13)
  ret void
}

; Function Attrs: inlinehint mustprogress uwtable
define internal void @"_ZZNK4pbrt9Primitive9IntersectERKNS_3RayEfENK3$_0clIPKNS_12BVHAggregateEEEDaT_"(ptr dead_on_unwind noalias writable sret(%"class.pstd::optional") align 8 %0, ptr noundef nonnull align 8 dereferenceable(16) %1, ptr noundef %2) #5 align 2 {
  %4 = alloca ptr, align 8
  %5 = alloca ptr, align 8
  %6 = alloca ptr, align 8
  store ptr %0, ptr %4, align 8
  store ptr %1, ptr %5, align 8, !tbaa !13
  store ptr %2, ptr %6, align 8, !tbaa !133
  %7 = load ptr, ptr %5, align 8
  %8 = load ptr, ptr %6, align 8, !tbaa !133
  %9 = getelementptr inbounds nuw %class.anon.6, ptr %7, i32 0, i32 0
  %10 = load ptr, ptr %9, align 8, !tbaa !137
  %11 = getelementptr inbounds nuw %class.anon.6, ptr %7, i32 0, i32 1
  %12 = load ptr, ptr %11, align 8, !tbaa !139
  %13 = load float, ptr %12, align 4, !tbaa !9
  call void @_ZNK4pbrt12BVHAggregate9IntersectERKNS_3RayEf(ptr dead_on_unwind writable sret(%"class.pstd::optional") align 8 %0, ptr noundef nonnull align 8 dereferenceable(48) %8, ptr noundef nonnull align 8 dereferenceable(40) %10, float noundef %13)
  ret void
}

; Function Attrs: inlinehint mustprogress uwtable
define internal void @"_ZZNK4pbrt9Primitive9IntersectERKNS_3RayEfENK3$_0clIPKNS_17AnimatedPrimitiveEEEDaT_"(ptr dead_on_unwind noalias writable sret(%"class.pstd::optional") align 8 %0, ptr noundef nonnull align 8 dereferenceable(16) %1, ptr noundef %2) #5 align 2 {
  %4 = alloca ptr, align 8
  %5 = alloca ptr, align 8
  %6 = alloca ptr, align 8
  store ptr %0, ptr %4, align 8
  store ptr %1, ptr %5, align 8, !tbaa !13
  store ptr %2, ptr %6, align 8, !tbaa !119
  %7 = load ptr, ptr %5, align 8
  %8 = load ptr, ptr %6, align 8, !tbaa !119
  %9 = getelementptr inbounds nuw %class.anon.6, ptr %7, i32 0, i32 0
  %10 = load ptr, ptr %9, align 8, !tbaa !137
  %11 = getelementptr inbounds nuw %class.anon.6, ptr %7, i32 0, i32 1
  %12 = load ptr, ptr %11, align 8, !tbaa !139
  %13 = load float, ptr %12, align 4, !tbaa !9
  call void @_ZNK4pbrt17AnimatedPrimitive9IntersectERKNS_3RayEf(ptr dead_on_unwind writable sret(%"class.pstd::optional") align 8 %0, ptr noundef nonnull align 8 dereferenceable(704) %8, ptr noundef nonnull align 8 dereferenceable(40) %10, float noundef %13)
  ret void
}

; Function Attrs: inlinehint mustprogress uwtable
define internal void @"_ZZNK4pbrt9Primitive9IntersectERKNS_3RayEfENK3$_0clIPKNS_20TransformedPrimitiveEEEDaT_"(ptr dead_on_unwind noalias writable sret(%"class.pstd::optional") align 8 %0, ptr noundef nonnull align 8 dereferenceable(16) %1, ptr noundef %2) #5 align 2 {
  %4 = alloca ptr, align 8
  %5 = alloca ptr, align 8
  %6 = alloca ptr, align 8
  store ptr %0, ptr %4, align 8
  store ptr %1, ptr %5, align 8, !tbaa !13
  store ptr %2, ptr %6, align 8, !tbaa !103
  %7 = load ptr, ptr %5, align 8
  %8 = load ptr, ptr %6, align 8, !tbaa !103
  %9 = getelementptr inbounds nuw %class.anon.6, ptr %7, i32 0, i32 0
  %10 = load ptr, ptr %9, align 8, !tbaa !137
  %11 = getelementptr inbounds nuw %class.anon.6, ptr %7, i32 0, i32 1
  %12 = load ptr, ptr %11, align 8, !tbaa !139
  %13 = load float, ptr %12, align 4, !tbaa !9
  call void @_ZNK4pbrt20TransformedPrimitive9IntersectERKNS_3RayEf(ptr dead_on_unwind writable sret(%"class.pstd::optional") align 8 %0, ptr noundef nonnull align 8 dereferenceable(16) %8, ptr noundef nonnull align 8 dereferenceable(40) %10, float noundef %13)
  ret void
}

; Function Attrs: inlinehint mustprogress uwtable
define internal void @"_ZZNK4pbrt9Primitive9IntersectERKNS_3RayEfENK3$_0clIPKNS_18GeometricPrimitiveEEEDaT_"(ptr dead_on_unwind noalias writable sret(%"class.pstd::optional") align 8 %0, ptr noundef nonnull align 8 dereferenceable(16) %1, ptr noundef %2) #5 align 2 {
  %4 = alloca ptr, align 8
  %5 = alloca ptr, align 8
  %6 = alloca ptr, align 8
  store ptr %0, ptr %4, align 8
  store ptr %1, ptr %5, align 8, !tbaa !13
  store ptr %2, ptr %6, align 8, !tbaa !22
  %7 = load ptr, ptr %5, align 8
  %8 = load ptr, ptr %6, align 8, !tbaa !22
  %9 = getelementptr inbounds nuw %class.anon.6, ptr %7, i32 0, i32 0
  %10 = load ptr, ptr %9, align 8, !tbaa !137
  %11 = getelementptr inbounds nuw %class.anon.6, ptr %7, i32 0, i32 1
  %12 = load ptr, ptr %11, align 8, !tbaa !139
  %13 = load float, ptr %12, align 4, !tbaa !9
  call void @_ZNK4pbrt18GeometricPrimitive9IntersectERKNS_3RayEf(ptr dead_on_unwind writable sret(%"class.pstd::optional") align 8 %0, ptr noundef nonnull align 8 dereferenceable(48) %8, ptr noundef nonnull align 8 dereferenceable(40) %10, float noundef %13)
  ret void
}

; Function Attrs: inlinehint mustprogress uwtable
define internal void @"_ZZNK4pbrt9Primitive9IntersectERKNS_3RayEfENK3$_0clIPKNS_15SimplePrimitiveEEEDaT_"(ptr dead_on_unwind noalias writable sret(%"class.pstd::optional") align 8 %0, ptr noundef nonnull align 8 dereferenceable(16) %1, ptr noundef %2) #5 align 2 {
  %4 = alloca ptr, align 8
  %5 = alloca ptr, align 8
  %6 = alloca ptr, align 8
  store ptr %0, ptr %4, align 8
  store ptr %1, ptr %5, align 8, !tbaa !13
  store ptr %2, ptr %6, align 8, !tbaa !99
  %7 = load ptr, ptr %5, align 8
  %8 = load ptr, ptr %6, align 8, !tbaa !99
  %9 = getelementptr inbounds nuw %class.anon.6, ptr %7, i32 0, i32 0
  %10 = load ptr, ptr %9, align 8, !tbaa !137
  %11 = getelementptr inbounds nuw %class.anon.6, ptr %7, i32 0, i32 1
  %12 = load ptr, ptr %11, align 8, !tbaa !139
  %13 = load float, ptr %12, align 4, !tbaa !9
  call void @_ZNK4pbrt15SimplePrimitive9IntersectERKNS_3RayEf(ptr dead_on_unwind writable sret(%"class.pstd::optional") align 8 %0, ptr noundef nonnull align 8 dereferenceable(16) %8, ptr noundef nonnull align 8 dereferenceable(40) %10, float noundef %13)
  ret void
}

; Function Attrs: mustprogress uwtable
define internal void @"_ZN4pbrt6detail11DispatchCPUIRZNKS_9Primitive9IntersectERKNS_3RayEfE3$_0N4pstd8optionalINS_17ShapeIntersectionEEENS_15SimplePrimitiveENS_18GeometricPrimitiveENS_20TransformedPrimitiveENS_17AnimatedPrimitiveENS_12BVHAggregateENS_15KdTreeAggregateEEEDaOT_PKvi"(ptr dead_on_unwind noalias writable sret(%"class.pstd::optional") align 8 %0, ptr noundef nonnull align 8 dereferenceable(16) %1, ptr noundef %2, i32 noundef %3) #1 {
  %5 = alloca ptr, align 8
  %6 = alloca ptr, align 8
  %7 = alloca ptr, align 8
  %8 = alloca i32, align 4
  store ptr %0, ptr %5, align 8
  store ptr %1, ptr %6, align 8, !tbaa !13
  store ptr %2, ptr %7, align 8, !tbaa !13
  store i32 %3, ptr %8, align 4, !tbaa !69
  br label %9

9:                                                ; preds = %4
  br label %10

10:                                               ; preds = %9
  br label %11

11:                                               ; preds = %10
  br label %12

12:                                               ; preds = %11
  %13 = load i32, ptr %8, align 4, !tbaa !69
  switch i32 %13, label %29 [
    i32 0, label %14
    i32 1, label %17
    i32 2, label %20
    i32 3, label %23
    i32 4, label %26
  ]

14:                                               ; preds = %12
  %15 = load ptr, ptr %6, align 8, !tbaa !13
  %16 = load ptr, ptr %7, align 8, !tbaa !13
  call void @"_ZZNK4pbrt9Primitive9IntersectERKNS_3RayEfENK3$_0clIPKNS_15SimplePrimitiveEEEDaT_"(ptr dead_on_unwind writable sret(%"class.pstd::optional") align 8 %0, ptr noundef nonnull align 8 dereferenceable(16) %15, ptr noundef %16)
  br label %32

17:                                               ; preds = %12
  %18 = load ptr, ptr %6, align 8, !tbaa !13
  %19 = load ptr, ptr %7, align 8, !tbaa !13
  call void @"_ZZNK4pbrt9Primitive9IntersectERKNS_3RayEfENK3$_0clIPKNS_18GeometricPrimitiveEEEDaT_"(ptr dead_on_unwind writable sret(%"class.pstd::optional") align 8 %0, ptr noundef nonnull align 8 dereferenceable(16) %18, ptr noundef %19)
  br label %32

20:                                               ; preds = %12
  %21 = load ptr, ptr %6, align 8, !tbaa !13
  %22 = load ptr, ptr %7, align 8, !tbaa !13
  call void @"_ZZNK4pbrt9Primitive9IntersectERKNS_3RayEfENK3$_0clIPKNS_20TransformedPrimitiveEEEDaT_"(ptr dead_on_unwind writable sret(%"class.pstd::optional") align 8 %0, ptr noundef nonnull align 8 dereferenceable(16) %21, ptr noundef %22)
  br label %32

23:                                               ; preds = %12
  %24 = load ptr, ptr %6, align 8, !tbaa !13
  %25 = load ptr, ptr %7, align 8, !tbaa !13
  call void @"_ZZNK4pbrt9Primitive9IntersectERKNS_3RayEfENK3$_0clIPKNS_17AnimatedPrimitiveEEEDaT_"(ptr dead_on_unwind writable sret(%"class.pstd::optional") align 8 %0, ptr noundef nonnull align 8 dereferenceable(16) %24, ptr noundef %25)
  br label %32

26:                                               ; preds = %12
  %27 = load ptr, ptr %6, align 8, !tbaa !13
  %28 = load ptr, ptr %7, align 8, !tbaa !13
  call void @"_ZZNK4pbrt9Primitive9IntersectERKNS_3RayEfENK3$_0clIPKNS_12BVHAggregateEEEDaT_"(ptr dead_on_unwind writable sret(%"class.pstd::optional") align 8 %0, ptr noundef nonnull align 8 dereferenceable(16) %27, ptr noundef %28)
  br label %32

29:                                               ; preds = %12
  %30 = load ptr, ptr %6, align 8, !tbaa !13
  %31 = load ptr, ptr %7, align 8, !tbaa !13
  call void @"_ZZNK4pbrt9Primitive9IntersectERKNS_3RayEfENK3$_0clIPKNS_15KdTreeAggregateEEEDaT_"(ptr dead_on_unwind writable sret(%"class.pstd::optional") align 8 %0, ptr noundef nonnull align 8 dereferenceable(16) %30, ptr noundef %31)
  br label %32

32:                                               ; preds = %29, %26, %23, %20, %17, %14
  ret void
}