; Function Attrs: mustprogress uwtable
define internal fastcc void @"_ZN4pbrt6detail11DispatchCPUIRZNKS_9Primitive9IntersectERKNS_3RayEfE3$_0N4pstd8optionalINS_17ShapeIntersectionEEENS_15SimplePrimitiveENS_18GeometricPrimitiveENS_20TransformedPrimitiveENS_17AnimatedPrimitiveENS_12BVHAggregateENS_15KdTreeAggregateEEEDaOT_PKvi"(ptr dead_on_unwind noalias writable align 8 %0, ptr noundef nonnull readonly align 8 captures(none) dereferenceable(16) %1, ptr noundef %2, i32 noundef %3) unnamed_addr #2 {
  %.val17 = load ptr, ptr %1, align 8, !tbaa !179
  %5 = getelementptr inbounds nuw i8, ptr %1, i64 8
  %.val18 = load ptr, ptr %5, align 8, !tbaa !181
  %.val18.val = load float, ptr %.val18, align 4, !tbaa !12
  switch i32 %3, label %11 [
    i32 0, label %6
    i32 1, label %7
    i32 2, label %8
    i32 3, label %9
    i32 4, label %10
  ]

6:                                                ; preds = %4
  tail call void @_ZNK4pbrt15SimplePrimitive9IntersectERKNS_3RayEf(ptr dead_on_unwind writable sret(%"class.pstd::optional") align 8 %0, ptr noundef nonnull readonly align 8 dereferenceable(16) %2, ptr noundef nonnull align 8 dereferenceable(40) %.val17, float noundef %.val18.val)
  br label %12

7:                                                ; preds = %4
  tail call void @_ZNK4pbrt18GeometricPrimitive9IntersectERKNS_3RayEf(ptr dead_on_unwind writable sret(%"class.pstd::optional") align 8 %0, ptr noundef nonnull align 8 dereferenceable(48) %2, ptr noundef nonnull align 8 dereferenceable(40) %.val17, float noundef %.val18.val)
  br label %12

8:                                                ; preds = %4
  tail call void @_ZNK4pbrt20TransformedPrimitive9IntersectERKNS_3RayEf(ptr dead_on_unwind writable sret(%"class.pstd::optional") align 8 %0, ptr noundef nonnull align 8 dereferenceable(16) %2, ptr noundef nonnull align 8 dereferenceable(40) %.val17, float noundef %.val18.val)
  br label %12

9:                                                ; preds = %4
  tail call void @_ZNK4pbrt17AnimatedPrimitive9IntersectERKNS_3RayEf(ptr dead_on_unwind writable sret(%"class.pstd::optional") align 8 %0, ptr noundef nonnull align 8 dereferenceable(704) %2, ptr noundef nonnull align 8 dereferenceable(40) %.val17, float noundef %.val18.val)
  br label %12

10:                                               ; preds = %4
  tail call void @_ZNK4pbrt12BVHAggregate9IntersectERKNS_3RayEf(ptr dead_on_unwind writable sret(%"class.pstd::optional") align 8 %0, ptr noundef nonnull align 8 dereferenceable(48) %2, ptr noundef nonnull align 8 dereferenceable(40) %.val17, float noundef %.val18.val)
  br label %12

11:                                               ; preds = %4
  tail call void @_ZNK4pbrt15KdTreeAggregate9IntersectERKNS_3RayEf(ptr dead_on_unwind writable sret(%"class.pstd::optional") align 8 %0, ptr noundef nonnull align 8 dereferenceable(104) %2, ptr noundef nonnull align 8 dereferenceable(40) %.val17, float noundef %.val18.val)
  br label %12

12:                                               ; preds = %11, %10, %9, %8, %7, %6
  ret void
}